; Function Attrs: nounwind uwtable
define void @bufferevent_run_eventcb_(ptr noundef %0, i16 noundef signext %1, i32 noundef %2) local_unnamed_addr #0 {
  %4 = getelementptr inbounds nuw i8, ptr %0, i64 320
  %5 = load ptr, ptr %4, align 8
  %6 = icmp eq ptr %5, null
  br i1 %6, label %bufferevent_incref.exit, label %7

7:                                                ; preds = %3
  %8 = getelementptr inbounds nuw i8, ptr %0, i64 440
  %9 = load i32, ptr %8, align 8
  %10 = or i32 %9, %2
  %11 = and i32 %10, 4
  %.not = icmp eq i32 %11, 0
  br i1 %.not, label %37, label %12

12:                                               ; preds = %7
  %13 = getelementptr inbounds nuw i8, ptr %0, i64 386
  %14 = load i16, ptr %13, align 2
  %15 = or i16 %14, %1
  store i16 %15, ptr %13, align 2
  %16 = tail call ptr @__errno_location() #8
  %17 = load i32, ptr %16, align 4
  %18 = getelementptr inbounds nuw i8, ptr %0, i64 392
  store i32 %17, ptr %18, align 8
  %19 = load ptr, ptr %0, align 8
  %20 = getelementptr inbounds nuw i8, ptr %0, i64 400
  %21 = tail call i32 @event_deferred_cb_schedule_(ptr noundef %19, ptr noundef nonnull %20) #7
  %.not13 = icmp eq i32 %21, 0
  br i1 %.not13, label %bufferevent_incref.exit, label %22

22:                                               ; preds = %12
  %23 = getelementptr inbounds nuw i8, ptr %0, i64 448
  %24 = load ptr, ptr %23, align 8
  %.not.i = icmp eq ptr %24, null
  br i1 %.not.i, label %.thread.i, label %28

.thread.i:                                        ; preds = %22
  %25 = getelementptr inbounds nuw i8, ptr %0, i64 444
  %26 = load i32, ptr %25, align 4
  %27 = add nsw i32 %26, 1
  store i32 %27, ptr %25, align 4
  br label %bufferevent_incref.exit

28:                                               ; preds = %22
  %29 = load ptr, ptr getelementptr inbounds nuw (i8, ptr @evthread_lock_fns_, i64 24), align 8
  %30 = tail call i32 %29(i32 noundef 0, ptr noundef nonnull %24) #7
  %.pr.i = load ptr, ptr %23, align 8
  %31 = getelementptr inbounds nuw i8, ptr %0, i64 444
  %32 = load i32, ptr %31, align 4
  %33 = add nsw i32 %32, 1
  store i32 %33, ptr %31, align 4
  %.not9.i = icmp eq ptr %.pr.i, null
  br i1 %.not9.i, label %bufferevent_incref.exit, label %34

34:                                               ; preds = %28
  %35 = load ptr, ptr getelementptr inbounds nuw (i8, ptr @evthread_lock_fns_, i64 32), align 8
  %36 = tail call i32 %35(i32 noundef 0, ptr noundef nonnull %.pr.i) #7
  br label %bufferevent_incref.exit

37:                                               ; preds = %7
  %38 = getelementptr inbounds nuw i8, ptr %0, i64 328
  %39 = load ptr, ptr %38, align 8
  tail call void %5(ptr noundef nonnull %0, i16 noundef signext %1, ptr noundef %39) #7
  br label %bufferevent_incref.exit

bufferevent_incref.exit:                          ; preds = %34, %28, %.thread.i, %37, %12, %3
  ret void
}